target datalayout = "e-m:e-p270:32:32-p271:32:32-p272:64:64-i64:64-i128:128-f80:128-n8:16:32:64-S128"
target triple = "x86_64-pc-linux-gnu"

%struct.H5A_dense_bt2_name_rec_t = type { %union.H5O_fheap_id_t, i8, i32, i32 }
%union.H5O_fheap_id_t = type { i64 }
%struct.H5A_bt2_ud_common_t = type { ptr, ptr, ptr, ptr, i32, i8, i32, ptr, ptr }
%struct.H5A_fh_ud_cmp_t = type { ptr, ptr, ptr, ptr, ptr, i32 }

@H5A_init_g = external global i8, align 1
@H5_libterm_g = external global i8, align 1
@.str.2 = private unnamed_addr constant [103 x i8] c"generated/home/dtcxzyw/WorkSpace/Projects/compilers/llvm-opt-benchmark/bench/hdf5/hdf5/src/H5Abtree2.c\00", align 1
@__func__.H5A__dense_btree2_name_compare = private unnamed_addr constant [31 x i8] c"H5A__dense_btree2_name_compare\00", align 1
@H5E_HEAP_g = external global i64, align 8
@H5E_CANTCOMPARE_g = external global i64, align 8
@.str.3 = private unnamed_addr constant [29 x i8] c"can't compare btree2 records\00", align 1

; Function Attrs: nounwind uwtable
define internal i32 @H5A__dense_btree2_name_compare(ptr noundef %0, ptr noundef %1, ptr noundef %2) #0 {
  %4 = alloca i32, align 4
  %5 = alloca ptr, align 8
  %6 = alloca ptr, align 8
  %7 = alloca ptr, align 8
  %8 = alloca ptr, align 8
  %9 = alloca ptr, align 8
  %10 = alloca i32, align 4
  %11 = alloca i8, align 1
  %12 = alloca %struct.H5A_fh_ud_cmp_t, align 8
  %13 = alloca ptr, align 8
  %14 = alloca i32, align 4
  store ptr %0, ptr %5, align 8, !tbaa !3
  store ptr %1, ptr %6, align 8, !tbaa !3
  store ptr %2, ptr %7, align 8, !tbaa !30
  call void @llvm.lifetime.start.p0(i64 8, ptr %8) #7
  %15 = load ptr, ptr %5, align 8, !tbaa !3
  store ptr %15, ptr %8, align 8, !tbaa !32
  call void @llvm.lifetime.start.p0(i64 8, ptr %9) #7
  %16 = load ptr, ptr %6, align 8, !tbaa !3
  store ptr %16, ptr %9, align 8, !tbaa !9
  call void @llvm.lifetime.start.p0(i64 4, ptr %10) #7
  store i32 0, ptr %10, align 4, !tbaa !34
  call void @llvm.lifetime.start.p0(i64 1, ptr %11) #7
  store i8 0, ptr %11, align 1, !tbaa !11
  %17 = load i8, ptr @H5A_init_g, align 1, !tbaa !11, !range !13, !noundef !14
  %18 = trunc i8 %17 to i1
  br i1 %18, label %23, label %19

19:                                               ; preds = %3
  %20 = load i8, ptr @H5_libterm_g, align 1, !tbaa !11, !range !13, !noundef !14
  %21 = trunc i8 %20 to i1
  %22 = xor i1 %21, true
  br label %23

23:                                               ; preds = %19, %3
  %24 = phi i1 [ true, %3 ], [ %22, %19 ]
  %25 = xor i1 %24, true
  %26 = xor i1 %25, true
  %27 = zext i1 %26 to i32
  %28 = sext i32 %27 to i64
  %29 = call i64 @llvm.expect.i64(i64 %28, i64 1)
  %30 = icmp ne i64 %29, 0
  br i1 %30, label %31, label %120

31:                                               ; preds = %23
  %32 = load ptr, ptr %8, align 8, !tbaa !32
  %33 = getelementptr inbounds nuw %struct.H5A_bt2_ud_common_t, ptr %32, i32 0, i32 4
  %34 = load i32, ptr %33, align 8, !tbaa !35
  %35 = load ptr, ptr %9, align 8, !tbaa !9
  %36 = getelementptr inbounds nuw %struct.H5A_dense_bt2_name_rec_t, ptr %35, i32 0, i32 3
  %37 = load i32, ptr %36, align 8, !tbaa !29
  %38 = icmp ult i32 %34, %37
  br i1 %38, label %39, label %41

39:                                               ; preds = %31
  %40 = load ptr, ptr %7, align 8, !tbaa !30
  store i32 -1, ptr %40, align 4, !tbaa !34
  br label %118

41:                                               ; preds = %31
  %42 = load ptr, ptr %8, align 8, !tbaa !32
  %43 = getelementptr inbounds nuw %struct.H5A_bt2_ud_common_t, ptr %42, i32 0, i32 4
  %44 = load i32, ptr %43, align 8, !tbaa !35
  %45 = load ptr, ptr %9, align 8, !tbaa !9
  %46 = getelementptr inbounds nuw %struct.H5A_dense_bt2_name_rec_t, ptr %45, i32 0, i32 3
  %47 = load i32, ptr %46, align 8, !tbaa !29
  %48 = icmp ugt i32 %44, %47
  br i1 %48, label %49, label %51

49:                                               ; preds = %41
  %50 = load ptr, ptr %7, align 8, !tbaa !30
  store i32 1, ptr %50, align 4, !tbaa !34
  br label %117

51:                                               ; preds = %41
  call void @llvm.lifetime.start.p0(i64 48, ptr %12) #7
  call void @llvm.lifetime.start.p0(i64 8, ptr %13) #7
  %52 = load ptr, ptr %8, align 8, !tbaa !32
  %53 = getelementptr inbounds nuw %struct.H5A_bt2_ud_common_t, ptr %52, i32 0, i32 0
  %54 = load ptr, ptr %53, align 8, !tbaa !36
  %55 = getelementptr inbounds nuw %struct.H5A_fh_ud_cmp_t, ptr %12, i32 0, i32 0
  store ptr %54, ptr %55, align 8, !tbaa !37
  %56 = load ptr, ptr %8, align 8, !tbaa !32
  %57 = getelementptr inbounds nuw %struct.H5A_bt2_ud_common_t, ptr %56, i32 0, i32 3
  %58 = load ptr, ptr %57, align 8, !tbaa !39
  %59 = getelementptr inbounds nuw %struct.H5A_fh_ud_cmp_t, ptr %12, i32 0, i32 1
  store ptr %58, ptr %59, align 8, !tbaa !40
  %60 = load ptr, ptr %9, align 8, !tbaa !9
  %61 = getelementptr inbounds nuw %struct.H5A_fh_ud_cmp_t, ptr %12, i32 0, i32 2
  store ptr %60, ptr %61, align 8, !tbaa !41
  %62 = load ptr, ptr %8, align 8, !tbaa !32
  %63 = getelementptr inbounds nuw %struct.H5A_bt2_ud_common_t, ptr %62, i32 0, i32 7
  %64 = load ptr, ptr %63, align 8, !tbaa !42
  %65 = getelementptr inbounds nuw %struct.H5A_fh_ud_cmp_t, ptr %12, i32 0, i32 3
  store ptr %64, ptr %65, align 8, !tbaa !43
  %66 = load ptr, ptr %8, align 8, !tbaa !32
  %67 = getelementptr inbounds nuw %struct.H5A_bt2_ud_common_t, ptr %66, i32 0, i32 8
  %68 = load ptr, ptr %67, align 8, !tbaa !44
  %69 = getelementptr inbounds nuw %struct.H5A_fh_ud_cmp_t, ptr %12, i32 0, i32 4
  store ptr %68, ptr %69, align 8, !tbaa !45
  %70 = getelementptr inbounds nuw %struct.H5A_fh_ud_cmp_t, ptr %12, i32 0, i32 5
  store i32 0, ptr %70, align 8, !tbaa !46
  %71 = load ptr, ptr %9, align 8, !tbaa !9
  %72 = getelementptr inbounds nuw %struct.H5A_dense_bt2_name_rec_t, ptr %71, i32 0, i32 1
  %73 = load i8, ptr %72, align 8, !tbaa !24
  %74 = zext i8 %73 to i32
  %75 = and i32 %74, 2
  %76 = icmp ne i32 %75, 0
  br i1 %76, label %77, label %81

77:                                               ; preds = %51
  %78 = load ptr, ptr %8, align 8, !tbaa !32
  %79 = getelementptr inbounds nuw %struct.H5A_bt2_ud_common_t, ptr %78, i32 0, i32 2
  %80 = load ptr, ptr %79, align 8, !tbaa !47
  store ptr %80, ptr %13, align 8, !tbaa !48
  br label %85

81:                                               ; preds = %51
  %82 = load ptr, ptr %8, align 8, !tbaa !32
  %83 = getelementptr inbounds nuw %struct.H5A_bt2_ud_common_t, ptr %82, i32 0, i32 1
  %84 = load ptr, ptr %83, align 8, !tbaa !49
  store ptr %84, ptr %13, align 8, !tbaa !48
  br label %85

85:                                               ; preds = %81, %77
  %86 = load ptr, ptr %13, align 8, !tbaa !48
  %87 = load ptr, ptr %9, align 8, !tbaa !9
  %88 = getelementptr inbounds nuw %struct.H5A_dense_bt2_name_rec_t, ptr %87, i32 0, i32 0
  %89 = call i32 @H5HF_op(ptr noundef %86, ptr noundef %88, ptr noundef @H5A__dense_fh_name_cmp, ptr noundef %12)
  %90 = icmp slt i32 %89, 0
  br i1 %90, label %91, label %110

91:                                               ; preds = %85
  br label %92

92:                                               ; preds = %91
  br label %93

93:                                               ; preds = %92
  br label %94

94:                                               ; preds = %93
  %95 = load i64, ptr @H5E_HEAP_g, align 8, !tbaa !50
  %96 = load i64, ptr @H5E_CANTCOMPARE_g, align 8, !tbaa !50
  %97 = call i32 (ptr, ptr, i32, i64, i64, ptr, ...) @H5E_printf_stack(ptr noundef @.str.2, ptr noundef @__func__.H5A__dense_btree2_name_compare, i32 noundef 264, i64 noundef %95, i64 noundef %96, ptr noundef @.str.3)
  br label %98

98:                                               ; preds = %94
  br label %99

99:                                               ; preds = %98
  store i8 1, ptr %11, align 1, !tbaa !11
  %100 = load i8, ptr %11, align 1, !tbaa !11, !range !13, !noundef !14
  %101 = trunc i8 %100 to i1
  %102 = zext i1 %101 to i8
  store i8 %102, ptr %11, align 1, !tbaa !11
  br label %103

103:                                              ; preds = %99
  br label %104

104:                                              ; preds = %103
  br label %105

105:                                              ; preds = %104
  store i32 -1, ptr %10, align 4, !tbaa !34
  store i32 10, ptr %14, align 4
  br label %114

106:                                              ; No predecessors!
  br label %107

107:                                              ; preds = %106
  br label %108

108:                                              ; preds = %107
  br label %109

109:                                              ; preds = %108
  br label %110

110:                                              ; preds = %109, %85
  %111 = getelementptr inbounds nuw %struct.H5A_fh_ud_cmp_t, ptr %12, i32 0, i32 5
  %112 = load i32, ptr %111, align 8, !tbaa !46
  %113 = load ptr, ptr %7, align 8, !tbaa !30
  store i32 %112, ptr %113, align 4, !tbaa !34
  store i32 0, ptr %14, align 4
  br label %114

114:                                              ; preds = %105, %110
  call void @llvm.lifetime.end.p0(i64 8, ptr %13) #7
  call void @llvm.lifetime.end.p0(i64 48, ptr %12) #7
  %115 = load i32, ptr %14, align 4
  switch i32 %115, label %122 [
    i32 0, label %116
    i32 10, label %119
  ]

116:                                              ; preds = %114
  br label %117

117:                                              ; preds = %116, %49
  br label %118

118:                                              ; preds = %117, %39
  br label %119

119:                                              ; preds = %118, %114
  br label %120

120:                                              ; preds = %119, %23
  %121 = load i32, ptr %10, align 4, !tbaa !34
  store i32 %121, ptr %4, align 4
  store i32 1, ptr %14, align 4
  br label %122

122:                                              ; preds = %120, %114
  call void @llvm.lifetime.end.p0(i64 1, ptr %11) #7
  call void @llvm.lifetime.end.p0(i64 4, ptr %10) #7
  call void @llvm.lifetime.end.p0(i64 8, ptr %9) #7
  call void @llvm.lifetime.end.p0(i64 8, ptr %8) #7
  %123 = load i32, ptr %4, align 4
  ret i32 %123
}