; Function Attrs: nounwind uwtable
define internal range(i32 -1, 1) i32 @H5A__dense_btree2_name_compare(ptr noundef readonly captures(none) %0, ptr noundef %1, ptr noundef writeonly captures(none) %2) #1 {
  %4 = alloca %struct.H5A_fh_ud_cmp_t, align 8
  %5 = load i8, ptr @H5A_init_g, align 1, !tbaa !3, !range !7, !noundef !8
  %6 = trunc nuw i8 %5 to i1
  %7 = load i8, ptr @H5_libterm_g, align 1, !range !7
  %8 = trunc nuw i8 %7 to i1
  %9 = xor i1 %8, true
  %10 = select i1 %6, i1 true, i1 %9
  br i1 %10, label %11, label %46, !prof !9

11:                                               ; preds = %3
  %12 = getelementptr inbounds nuw i8, ptr %0, i64 32
  %13 = load i32, ptr %12, align 8, !tbaa !25
  %14 = getelementptr inbounds nuw i8, ptr %1, i64 16
  %15 = load i32, ptr %14, align 8, !tbaa !24
  %16 = icmp ult i32 %13, %15
  br i1 %16, label %17, label %18

17:                                               ; preds = %11
  store i32 -1, ptr %2, align 4, !tbaa !26
  br label %46

18:                                               ; preds = %11
  %19 = icmp ugt i32 %13, %15
  br i1 %19, label %20, label %21

20:                                               ; preds = %18
  store i32 1, ptr %2, align 4, !tbaa !26
  br label %46

21:                                               ; preds = %18
  call void @llvm.lifetime.start.p0(i64 48, ptr nonnull %4) #8
  %22 = load ptr, ptr %0, align 8, !tbaa !27
  store ptr %22, ptr %4, align 8, !tbaa !28
  %23 = getelementptr inbounds nuw i8, ptr %0, i64 24
  %24 = load ptr, ptr %23, align 8, !tbaa !31
  %25 = getelementptr inbounds nuw i8, ptr %4, i64 8
  store ptr %24, ptr %25, align 8, !tbaa !32
  %26 = getelementptr inbounds nuw i8, ptr %4, i64 16
  store ptr %1, ptr %26, align 8, !tbaa !33
  %27 = getelementptr inbounds nuw i8, ptr %0, i64 48
  %28 = load ptr, ptr %27, align 8, !tbaa !34
  %29 = getelementptr inbounds nuw i8, ptr %4, i64 24
  store ptr %28, ptr %29, align 8, !tbaa !35
  %30 = getelementptr inbounds nuw i8, ptr %0, i64 56
  %31 = load ptr, ptr %30, align 8, !tbaa !36
  %32 = getelementptr inbounds nuw i8, ptr %4, i64 32
  store ptr %31, ptr %32, align 8, !tbaa !37
  %33 = getelementptr inbounds nuw i8, ptr %4, i64 40
  store i32 0, ptr %33, align 8, !tbaa !38
  %34 = getelementptr inbounds nuw i8, ptr %1, i64 8
  %35 = load i8, ptr %34, align 8, !tbaa !19
  %36 = and i8 %35, 2
  %.not = icmp eq i8 %36, 0
  %.022.in.v = select i1 %.not, i64 8, i64 16
  %.022.in = getelementptr inbounds nuw i8, ptr %0, i64 %.022.in.v
  %.022 = load ptr, ptr %.022.in, align 8, !tbaa !39
  %37 = call i32 @H5HF_op(ptr noundef %.022, ptr noundef nonnull %1, ptr noundef nonnull @H5A__dense_fh_name_cmp, ptr noundef nonnull %4) #8
  %38 = icmp slt i32 %37, 0
  br i1 %38, label %39, label %43

39:                                               ; preds = %21
  %40 = load i64, ptr @H5E_HEAP_g, align 8, !tbaa !40
  %41 = load i64, ptr @H5E_CANTCOMPARE_g, align 8, !tbaa !40
  %42 = call i32 (ptr, ptr, i32, i64, i64, ptr, ...) @H5E_printf_stack(ptr noundef nonnull @.str.2, ptr noundef nonnull @__func__.H5A__dense_btree2_name_compare, i32 noundef 264, i64 noundef %40, i64 noundef %41, ptr noundef nonnull @.str.3) #8
  br label %45

43:                                               ; preds = %21
  %44 = load i32, ptr %33, align 8, !tbaa !38
  store i32 %44, ptr %2, align 4, !tbaa !26
  br label %45

45:                                               ; preds = %43, %39
  %.1 = phi i32 [ -1, %39 ], [ 0, %43 ]
  call void @llvm.lifetime.end.p0(i64 48, ptr nonnull %4) #8
  br label %46

46:                                               ; preds = %45, %3, %17, %20
  %.024 = phi i32 [ 0, %17 ], [ 0, %20 ], [ %.1, %45 ], [ 0, %3 ]
  ret i32 %.024
}